target datalayout = "e-m:e-p270:32:32-p271:32:32-p272:64:64-i64:64-i128:128-f80:128-n8:16:32:64-S128"
target triple = "x86_64-pc-linux-gnu"

%"struct.cv::optflow::GPCPatchDescriptor" = type { %"class.cv::Vec" }
%"class.cv::Vec" = type { %"class.cv::Matx" }
%"class.cv::Matx" = type { [18 x double] }

; Function Attrs: inlinehint mustprogress nounwind uwtable
define linkonce_odr hidden noundef double @_ZNK2cv4MatxIdLi18ELi1EE3dotERKS1_(ptr noundef nonnull align 8 dereferenceable(144) %0, ptr noundef nonnull align 8 dereferenceable(144) %1) #1 comdat align 2 {
  %3 = alloca ptr, align 8
  %4 = alloca ptr, align 8
  %5 = alloca double, align 8
  %6 = alloca i32, align 4
  store ptr %0, ptr %3, align 8, !tbaa !15
  store ptr %1, ptr %4, align 8, !tbaa !15
  %7 = load ptr, ptr %3, align 8
  call void @llvm.lifetime.start.p0(i64 8, ptr %5) #22
  store double 0.000000e+00, ptr %5, align 8, !tbaa !17
  call void @llvm.lifetime.start.p0(i64 4, ptr %6) #22
  store i32 0, ptr %6, align 4, !tbaa !19
  br label %8

8:                                                ; preds = %26, %2
  %9 = load i32, ptr %6, align 4, !tbaa !19
  %10 = icmp slt i32 %9, 18
  br i1 %10, label %12, label %11

11:                                               ; preds = %8
  call void @llvm.lifetime.end.p0(i64 4, ptr %6) #22
  br label %29

12:                                               ; preds = %8
  %13 = getelementptr inbounds nuw %"class.cv::Matx", ptr %7, i32 0, i32 0
  %14 = load i32, ptr %6, align 4, !tbaa !19
  %15 = sext i32 %14 to i64
  %16 = getelementptr inbounds [18 x double], ptr %13, i64 0, i64 %15
  %17 = load double, ptr %16, align 8, !tbaa !17
  %18 = load ptr, ptr %4, align 8, !tbaa !15
  %19 = getelementptr inbounds nuw %"class.cv::Matx", ptr %18, i32 0, i32 0
  %20 = load i32, ptr %6, align 4, !tbaa !19
  %21 = sext i32 %20 to i64
  %22 = getelementptr inbounds [18 x double], ptr %19, i64 0, i64 %21
  %23 = load double, ptr %22, align 8, !tbaa !17
  %24 = load double, ptr %5, align 8, !tbaa !17
  %25 = call double @llvm.fmuladd.f64(double %17, double %23, double %24)
  store double %25, ptr %5, align 8, !tbaa !17
  br label %26

26:                                               ; preds = %12
  %27 = load i32, ptr %6, align 4, !tbaa !19
  %28 = add nsw i32 %27, 1
  store i32 %28, ptr %6, align 4, !tbaa !19
  br label %8, !llvm.loop !21

29:                                               ; preds = %11
  %30 = load double, ptr %5, align 8, !tbaa !17
  call void @llvm.lifetime.end.p0(i64 8, ptr %5) #22
  ret double %30
}

; Function Attrs: mustprogress uwtable
define noundef double @_ZNK2cv7optflow18GPCPatchDescriptor3dotERKNS_3VecIdLi18EEE(ptr noundef nonnull align 8 dereferenceable(144) %0, ptr noundef nonnull align 8 dereferenceable(144) %1) #2 align 2 {
  %3 = alloca ptr, align 8
  %4 = alloca ptr, align 8
  store ptr %0, ptr %3, align 8, !tbaa !11
  store ptr %1, ptr %4, align 8, !tbaa !13
  %5 = load ptr, ptr %3, align 8
  %6 = getelementptr inbounds nuw %"struct.cv::optflow::GPCPatchDescriptor", ptr %5, i32 0, i32 0
  %7 = load ptr, ptr %4, align 8, !tbaa !13
  %8 = call noundef double @_ZNK2cv4MatxIdLi18ELi1EE3dotERKS1_(ptr noundef nonnull align 8 dereferenceable(144) %6, ptr noundef nonnull align 8 dereferenceable(144) %7)
  ret double %8
}