; Function Attrs: mustprogress nofree norecurse nosync nounwind willreturn memory(argmem: read) uwtable
define noundef double @_ZNK2cv7optflow18GPCPatchDescriptor3dotERKNS_3VecIdLi18EEE(ptr noundef nonnull readonly align 8 captures(none) dereferenceable(144) %0, ptr noundef nonnull readonly align 8 captures(none) dereferenceable(144) %1) local_unnamed_addr #0 align 2 {
  br label %3

3:                                                ; preds = %3, %2
  %indvars.iv.i = phi i64 [ 0, %2 ], [ %indvars.iv.next.i, %3 ]
  %.078.i = phi double [ 0.000000e+00, %2 ], [ %8, %3 ]
  %4 = getelementptr inbounds nuw [18 x double], ptr %0, i64 0, i64 %indvars.iv.i
  %5 = load double, ptr %4, align 8, !tbaa !3
  %6 = getelementptr inbounds nuw [18 x double], ptr %1, i64 0, i64 %indvars.iv.i
  %7 = load double, ptr %6, align 8, !tbaa !3
  %8 = tail call double @llvm.fmuladd.f64(double %5, double %7, double %.078.i)
  %indvars.iv.next.i = add nuw nsw i64 %indvars.iv.i, 1
  %exitcond.not.i = icmp eq i64 %indvars.iv.next.i, 18
  br i1 %exitcond.not.i, label %_ZNK2cv4MatxIdLi18ELi1EE3dotERKS1_.exit, label %3, !llvm.loop !7

_ZNK2cv4MatxIdLi18ELi1EE3dotERKS1_.exit:          ; preds = %3
  ret double %8
}